; Function Attrs: mustprogress uwtable
define dso_local noundef zeroext i1 @_ZN9cmProcess6Buffer7GetLastERNSt7__cxx1112basic_stringIcSt11char_traitsIcESaIcEEE(ptr noundef nonnull align 8 captures(none) dereferenceable(40) %0, ptr noundef nonnull align 8 dereferenceable(32) %1) local_unnamed_addr #3 align 2 personality ptr @__gxx_personality_v0 {
  %3 = load ptr, ptr %0, align 8
  %4 = getelementptr inbounds nuw i8, ptr %0, i64 8
  %5 = load ptr, ptr %4, align 8
  %6 = icmp ne ptr %3, %5
  br i1 %6, label %7, label %_ZNSt6vectorIcSaIcEE5clearEv.exit

7:                                                ; preds = %2
  %8 = ptrtoint ptr %5 to i64
  %9 = ptrtoint ptr %3 to i64
  %10 = sub i64 %8, %9
  %11 = tail call noundef nonnull align 8 dereferenceable(32) ptr @_ZNSt7__cxx1112basic_stringIcSt11char_traitsIcESaIcEE6assignEPKcm(ptr noundef nonnull align 8 dereferenceable(32) %1, ptr noundef %3, i64 noundef %10)
  %12 = getelementptr inbounds nuw i8, ptr %0, i64 24
  tail call void @llvm.memset.p0.i64(ptr noundef nonnull align 8 dereferenceable(16) %12, i8 0, i64 16, i1 false)
  %13 = load ptr, ptr %0, align 8
  %14 = load ptr, ptr %4, align 8
  %.not.i.i = icmp eq ptr %14, %13
  br i1 %.not.i.i, label %_ZNSt6vectorIcSaIcEE5clearEv.exit, label %15

15:                                               ; preds = %7
  store ptr %13, ptr %4, align 8
  br label %_ZNSt6vectorIcSaIcEE5clearEv.exit

_ZNSt6vectorIcSaIcEE5clearEv.exit:                ; preds = %15, %7, %2
  ret i1 %6
}